target datalayout = "e-m:e-p270:32:32-p271:32:32-p272:64:64-i64:64-i128:128-f80:128-n8:16:32:64-S128"
target triple = "x86_64-pc-linux-gnu"

%"class.clang::SourceLocation" = type { i32 }
%"class.llvm::SmallVectorBase" = type { ptr, i32, i32 }
%"class.clang::ASTStmtReader" = type <{ ptr, ptr, %"class.std::optional", [4 x i8] }>
%"class.std::optional" = type { %"struct.std::_Optional_base" }
%"struct.std::_Optional_base" = type { %"struct.std::_Optional_payload" }
%"struct.std::_Optional_payload" = type { %"struct.std::_Optional_payload_base.base", [3 x i8] }
%"struct.std::_Optional_payload_base.base" = type <{ %"union.std::_Optional_payload_base<clang::BitsUnpacker>::_Storage", i8 }>
%"union.std::_Optional_payload_base<clang::BitsUnpacker>::_Storage" = type { %"class.clang::BitsUnpacker" }
%"class.clang::BitsUnpacker" = type { i32, i32 }
%"class.clang::Stmt" = type { %union.anon.9 }
%union.anon.9 = type { %"class.clang::Stmt::PseudoObjectExprBitfields" }
%"class.clang::Stmt::PseudoObjectExprBitfields" = type { i64 }
%"class.clang::ASTRecordReader" = type { %"class.clang::serialization::DataStreamBasicReader", ptr, ptr, i32, %"class.llvm::SmallVector.4" }
%"class.clang::serialization::DataStreamBasicReader" = type { %"class.clang::serialization::BasicReaderBase" }
%"class.clang::serialization::BasicReaderBase" = type { ptr }
%"class.llvm::SmallVector.4" = type { %"class.llvm::SmallVectorImpl.5", %"struct.llvm::SmallVectorStorage.8" }
%"class.llvm::SmallVectorImpl.5" = type { %"class.llvm::SmallVectorTemplateBase.6" }
%"class.llvm::SmallVectorTemplateBase.6" = type { %"class.llvm::SmallVectorTemplateCommon.7" }
%"class.llvm::SmallVectorTemplateCommon.7" = type { %"class.llvm::SmallVectorBase" }
%"struct.llvm::SmallVectorStorage.8" = type { [512 x i8] }
%"class.clang::ValueStmt" = type { %"class.clang::Stmt" }
%"class.clang::Expr" = type { %"class.clang::ValueStmt", %"class.clang::QualType" }
%"class.clang::QualType" = type { %"class.llvm::PointerIntPair.201" }
%"class.llvm::PointerIntPair.201" = type { %"struct.llvm::detail::PunnedPointer.202" }
%"struct.llvm::detail::PunnedPointer.202" = type { [8 x i8] }
%"class.clang::SourceRange" = type { %"class.clang::SourceLocation", %"class.clang::SourceLocation" }
%"class.clang::CallExpr" = type { %"class.clang::Expr", i32, %"class.clang::SourceLocation" }
%"class.clang::Stmt::CXXOperatorCallExprBitfields" = type <{ i32, i8, [3 x i8] }>
%"class.clang::CXXOperatorCallExpr" = type { %"class.clang::CallExpr", %"class.clang::SourceRange" }

; Function Attrs: mustprogress nounwind uwtable
define linkonce_odr hidden noundef ptr @_ZN4llvm25SmallVectorTemplateCommonImvE5beginEv(ptr noundef nonnull align 8 dereferenceable(16) %0) #0 comdat align 2 {
  %2 = alloca ptr, align 8
  store ptr %0, ptr %2, align 8
  %3 = load ptr, ptr %2, align 8
  %4 = getelementptr inbounds nuw %"class.llvm::SmallVectorBase", ptr %3, i32 0, i32 0
  %5 = load ptr, ptr %4, align 8
  ret ptr %5
}

; Function Attrs: mustprogress nounwind uwtable
define linkonce_odr hidden noundef nonnull align 8 dereferenceable(8) ptr @_ZN4llvm25SmallVectorTemplateCommonImvEixEm(ptr noundef nonnull align 8 dereferenceable(16) %0, i64 noundef %1) #0 comdat align 2 {
  %3 = alloca ptr, align 8
  %4 = alloca i64, align 8
  store ptr %0, ptr %3, align 8
  store i64 %1, ptr %4, align 8
  %5 = load ptr, ptr %3, align 8
  %6 = call noundef ptr @_ZN4llvm25SmallVectorTemplateCommonImvE5beginEv(ptr noundef nonnull align 8 dereferenceable(16) %5)
  %7 = load i64, ptr %4, align 8
  %8 = getelementptr inbounds i64, ptr %6, i64 %7
  ret ptr %8
}

; Function Attrs: mustprogress nounwind uwtable
define linkonce_odr hidden i64 @_ZN5clang15ASTRecordReader15readSourceRangeEPNS_22SourceLocationSequenceE(ptr noundef nonnull align 8 dereferenceable(560) %0, ptr noundef %1) #0 comdat align 2 {
  %3 = alloca %"class.clang::SourceRange", align 4
  %4 = alloca ptr, align 8
  %5 = alloca ptr, align 8
  store ptr %0, ptr %4, align 8
  store ptr %1, ptr %5, align 8
  %6 = load ptr, ptr %4, align 8
  %7 = getelementptr inbounds nuw %"class.clang::ASTRecordReader", ptr %6, i32 0, i32 1
  %8 = load ptr, ptr %7, align 8
  %9 = getelementptr inbounds nuw %"class.clang::ASTRecordReader", ptr %6, i32 0, i32 2
  %10 = load ptr, ptr %9, align 8
  %11 = getelementptr inbounds nuw %"class.clang::ASTRecordReader", ptr %6, i32 0, i32 4
  %12 = getelementptr inbounds nuw %"class.clang::ASTRecordReader", ptr %6, i32 0, i32 3
  %13 = load ptr, ptr %5, align 8
  %14 = call i64 @_ZN5clang9ASTReader15ReadSourceRangeERNS_13serialization10ModuleFileERKN4llvm11SmallVectorImLj64EEERjPNS_22SourceLocationSequenceE(ptr noundef nonnull align 8 dereferenceable(15968) %8, ptr noundef nonnull align 8 dereferenceable(3464) %10, ptr noundef nonnull align 8 dereferenceable(528) %11, ptr noundef nonnull align 4 dereferenceable(4) %12, ptr noundef %13)
  store i64 %14, ptr %3, align 4
  %15 = load i64, ptr %3, align 4
  ret i64 %15
}

; Function Attrs: mustprogress nounwind uwtable
define linkonce_odr hidden noundef i64 @_ZN5clang15ASTRecordReader7readIntEv(ptr noundef nonnull align 8 dereferenceable(560) %0) #0 comdat align 2 {
  %2 = alloca ptr, align 8
  store ptr %0, ptr %2, align 8
  %3 = load ptr, ptr %2, align 8
  %4 = getelementptr inbounds nuw %"class.clang::ASTRecordReader", ptr %3, i32 0, i32 4
  %5 = getelementptr inbounds nuw %"class.clang::ASTRecordReader", ptr %3, i32 0, i32 3
  %6 = load i32, ptr %5, align 8
  %7 = add i32 %6, 1
  store i32 %7, ptr %5, align 8
  %8 = zext i32 %6 to i64
  %9 = call noundef nonnull align 8 dereferenceable(8) ptr @_ZN4llvm25SmallVectorTemplateCommonImvEixEm(ptr noundef nonnull align 8 dereferenceable(16) %4, i64 noundef %8)
  %10 = load i64, ptr %9, align 8
  ret i64 %10
}

; Function Attrs: mustprogress nounwind uwtable
define dso_local void @_ZN5clang13ASTStmtReader24VisitCXXOperatorCallExprEPNS_19CXXOperatorCallExprE(ptr noundef nonnull align 8 dereferenceable(28) %0, ptr noundef %1) #0 align 2 {
  %3 = alloca ptr, align 8
  %4 = alloca ptr, align 8
  %5 = alloca %"class.clang::SourceRange", align 4
  store ptr %0, ptr %3, align 8
  store ptr %1, ptr %4, align 8
  %6 = load ptr, ptr %3, align 8
  %7 = load ptr, ptr %4, align 8
  call void @_ZN5clang13ASTStmtReader13VisitCallExprEPNS_8CallExprE(ptr noundef nonnull align 8 dereferenceable(28) %6, ptr noundef %7)
  %8 = getelementptr inbounds nuw %"class.clang::ASTStmtReader", ptr %6, i32 0, i32 0
  %9 = load ptr, ptr %8, align 8
  %10 = call noundef i64 @_ZN5clang15ASTRecordReader7readIntEv(ptr noundef nonnull align 8 dereferenceable(560) %9)
  %11 = trunc i64 %10 to i32
  %12 = load ptr, ptr %4, align 8
  %13 = getelementptr inbounds nuw %"class.clang::Stmt", ptr %12, i32 0, i32 0
  %14 = getelementptr inbounds nuw %"class.clang::Stmt::CXXOperatorCallExprBitfields", ptr %13, i32 0, i32 1
  %15 = trunc i32 %11 to i8
  %16 = load i8, ptr %14, align 4
  %17 = and i8 %15, 63
  %18 = and i8 %16, -64
  %19 = or i8 %18, %17
  store i8 %19, ptr %14, align 4
  %20 = getelementptr inbounds nuw %"class.clang::ASTStmtReader", ptr %6, i32 0, i32 0
  %21 = load ptr, ptr %20, align 8
  %22 = call i64 @_ZN5clang15ASTRecordReader15readSourceRangeEPNS_22SourceLocationSequenceE(ptr noundef nonnull align 8 dereferenceable(560) %21, ptr noundef null)
  store i64 %22, ptr %5, align 4
  %23 = load ptr, ptr %4, align 8
  %24 = getelementptr inbounds nuw %"class.clang::CXXOperatorCallExpr", ptr %23, i32 0, i32 1
  call void @llvm.memcpy.p0.p0.i64(ptr align 8 %24, ptr align 4 %5, i64 8, i1 false)
  ret void
}