; Function Attrs: mustprogress nounwind uwtable
define dso_local void @_ZN5clang13ASTStmtReader24VisitCXXOperatorCallExprEPNS_19CXXOperatorCallExprE(ptr noundef nonnull align 8 captures(none) dereferenceable(28) initializes((16, 25)) %0, ptr noundef captures(none) initializes((8, 16)) %1) local_unnamed_addr #0 align 2 {
  tail call void @_ZN5clang13ASTStmtReader13VisitCallExprEPNS_8CallExprE(ptr noundef nonnull align 8 dereferenceable(28) %0, ptr noundef %1)
  %3 = load ptr, ptr %0, align 8
  %4 = getelementptr inbounds nuw i8, ptr %3, i64 32
  %5 = getelementptr inbounds nuw i8, ptr %3, i64 24
  %6 = load i32, ptr %5, align 8
  %7 = add i32 %6, 1
  store i32 %7, ptr %5, align 8
  %8 = zext i32 %6 to i64
  %9 = load ptr, ptr %4, align 8
  %10 = getelementptr inbounds nuw i64, ptr %9, i64 %8
  %11 = load i64, ptr %10, align 8
  %12 = getelementptr inbounds nuw i8, ptr %1, i64 4
  %13 = trunc i64 %11 to i8
  %14 = load i8, ptr %12, align 4
  %15 = and i8 %13, 63
  %16 = and i8 %14, -64
  %17 = or disjoint i8 %16, %15
  store i8 %17, ptr %12, align 4
  %18 = load ptr, ptr %0, align 8
  %19 = getelementptr inbounds nuw i8, ptr %18, i64 8
  %20 = load ptr, ptr %19, align 8
  %21 = getelementptr inbounds nuw i8, ptr %18, i64 16
  %22 = load ptr, ptr %21, align 8
  %23 = getelementptr inbounds nuw i8, ptr %18, i64 32
  %24 = getelementptr inbounds nuw i8, ptr %18, i64 24
  %25 = tail call i64 @_ZN5clang9ASTReader15ReadSourceRangeERNS_13serialization10ModuleFileERKN4llvm11SmallVectorImLj64EEERjPNS_22SourceLocationSequenceE(ptr noundef nonnull align 8 dereferenceable(15968) %20, ptr noundef nonnull align 8 dereferenceable(3464) %22, ptr noundef nonnull align 8 dereferenceable(528) %23, ptr noundef nonnull align 4 dereferenceable(4) %24, ptr noundef null) #18
  %26 = getelementptr inbounds nuw i8, ptr %1, i64 24
  store i64 %25, ptr %26, align 8
  ret void
}